target datalayout = "e-m:e-p270:32:32-p271:32:32-p272:64:64-i64:64-i128:128-f80:128-n8:16:32:64-S128"
target triple = "x86_64-pc-linux-gnu"

%"class.icu_77::UnicodeSetStringSpan" = type { [8 x i8], %"class.icu_77::UnicodeSet", ptr, ptr, ptr, ptr, ptr, i32, i32, i32, i8, [32 x i32] }
%"class.icu_77::UnicodeSet" = type <{ %"class.icu_77::UnicodeFilter", ptr, i32, i32, i8, [7 x i8], ptr, ptr, i32, [4 x i8], ptr, i32, [4 x i8], ptr, ptr, [25 x i32], [4 x i8] }>
%"class.icu_77::UnicodeFilter" = type { %"class.icu_77::UnicodeFunctor", %"class.icu_77::UnicodeMatcher" }
%"class.icu_77::UnicodeFunctor" = type { %"class.icu_77::UObject" }
%"class.icu_77::UObject" = type { ptr }
%"class.icu_77::UnicodeMatcher" = type { ptr }

; Function Attrs: mustprogress nounwind uwtable
define void @_ZN6icu_7720UnicodeSetStringSpanD2Ev(ptr noundef nonnull align 8 dereferenceable(392) %0) unnamed_addr #8 align 2 personality ptr @__gxx_personality_v0 {
  %2 = alloca ptr, align 8
  store ptr %0, ptr %2, align 8, !tbaa !3
  %3 = load ptr, ptr %2, align 8
  %4 = getelementptr inbounds nuw %"class.icu_77::UnicodeSetStringSpan", ptr %3, i32 0, i32 2
  %5 = load ptr, ptr %4, align 8, !tbaa !14
  %6 = icmp ne ptr %5, null
  br i1 %6, label %7, label %18

7:                                                ; preds = %1
  %8 = getelementptr inbounds nuw %"class.icu_77::UnicodeSetStringSpan", ptr %3, i32 0, i32 2
  %9 = load ptr, ptr %8, align 8, !tbaa !14
  %10 = getelementptr inbounds nuw %"class.icu_77::UnicodeSetStringSpan", ptr %3, i32 0, i32 1
  %11 = icmp ne ptr %9, %10
  br i1 %11, label %12, label %18

12:                                               ; preds = %7
  %13 = getelementptr inbounds nuw %"class.icu_77::UnicodeSetStringSpan", ptr %3, i32 0, i32 2
  %14 = load ptr, ptr %13, align 8, !tbaa !14
  %15 = icmp eq ptr %14, null
  br i1 %15, label %17, label %16

16:                                               ; preds = %12
  call void @_ZN6icu_7710UnicodeSetD1Ev(ptr noundef nonnull align 8 dereferenceable(200) %14) #11
  call void @_ZN6icu_777UMemorydlEPv(ptr noundef %14) #11
  br label %17

17:                                               ; preds = %16, %12
  br label %18

18:                                               ; preds = %17, %7, %1
  %19 = getelementptr inbounds nuw %"class.icu_77::UnicodeSetStringSpan", ptr %3, i32 0, i32 4
  %20 = load ptr, ptr %19, align 8, !tbaa !25
  %21 = icmp ne ptr %20, null
  br i1 %21, label %22, label %32

22:                                               ; preds = %18
  %23 = getelementptr inbounds nuw %"class.icu_77::UnicodeSetStringSpan", ptr %3, i32 0, i32 4
  %24 = load ptr, ptr %23, align 8, !tbaa !25
  %25 = getelementptr inbounds nuw %"class.icu_77::UnicodeSetStringSpan", ptr %3, i32 0, i32 11
  %26 = getelementptr inbounds [32 x i32], ptr %25, i64 0, i64 0
  %27 = icmp ne ptr %24, %26
  br i1 %27, label %28, label %32

28:                                               ; preds = %22
  %29 = getelementptr inbounds nuw %"class.icu_77::UnicodeSetStringSpan", ptr %3, i32 0, i32 4
  %30 = load ptr, ptr %29, align 8, !tbaa !25
  invoke void @uprv_free_77(ptr noundef %30)
          to label %31 unwind label %34

31:                                               ; preds = %28
  br label %32

32:                                               ; preds = %31, %22, %18
  %33 = getelementptr inbounds nuw %"class.icu_77::UnicodeSetStringSpan", ptr %3, i32 0, i32 1
  call void @_ZN6icu_7710UnicodeSetD1Ev(ptr noundef nonnull align 8 dereferenceable(200) %33) #11
  ret void

34:                                               ; preds = %28
  %35 = landingpad { ptr, i32 }
          catch ptr null
  %36 = extractvalue { ptr, i32 } %35, 0
  call void @__clang_call_terminate(ptr %36) #13
  unreachable
}