; Function Attrs: mustprogress nounwind uwtable
define void @_ZN6icu_7720UnicodeSetStringSpanD2Ev(ptr noundef nonnull align 8 dereferenceable(392) %0) unnamed_addr #6 align 2 personality ptr @__gxx_personality_v0 {
  %2 = getelementptr inbounds nuw i8, ptr %0, i64 208
  %3 = load ptr, ptr %2, align 8, !tbaa !3
  %.not = icmp eq ptr %3, null
  %4 = getelementptr inbounds nuw i8, ptr %0, i64 8
  %.not2 = icmp eq ptr %3, %4
  %or.cond = select i1 %.not, i1 true, i1 %.not2
  br i1 %or.cond, label %6, label %5

5:                                                ; preds = %1
  tail call void @_ZN6icu_7710UnicodeSetD1Ev(ptr noundef nonnull align 8 dereferenceable(200) %3) #12
  tail call void @_ZN6icu_777UMemorydlEPv(ptr noundef nonnull %3) #12
  br label %6

6:                                                ; preds = %5, %1
  %7 = getelementptr inbounds nuw i8, ptr %0, i64 224
  %8 = load ptr, ptr %7, align 8, !tbaa !36
  %.not3 = icmp eq ptr %8, null
  %9 = getelementptr inbounds nuw i8, ptr %0, i64 264
  %.not4 = icmp eq ptr %8, %9
  %or.cond5 = select i1 %.not3, i1 true, i1 %.not4
  br i1 %or.cond5, label %11, label %10

10:                                               ; preds = %6
  invoke void @uprv_free_77(ptr noundef nonnull %8)
          to label %11 unwind label %12

11:                                               ; preds = %10, %6
  tail call void @_ZN6icu_7710UnicodeSetD1Ev(ptr noundef nonnull align 8 dereferenceable(200) %4) #12
  ret void

12:                                               ; preds = %10
  %13 = landingpad { ptr, i32 }
          catch ptr null
  %14 = extractvalue { ptr, i32 } %13, 0
  tail call void @__clang_call_terminate(ptr %14) #14
  unreachable
}